target datalayout = "e-m:e-p270:32:32-p271:32:32-p272:64:64-i64:64-i128:128-f80:128-n8:16:32:64-S128"
target triple = "x86_64-pc-linux-gnu"

%struct.stat = type { i64, i64, i64, i32, i32, i32, i32, i64, i64, i64, i64, %struct.timespec, %struct.timespec, %struct.timespec, [3 x i64] }
%struct.timespec = type { i64, i64 }
%struct.packed_commit_list = type { ptr, i64, i64 }
%struct.write_commit_graph_context = type { ptr, ptr, ptr, %struct.oid_array, %struct.packed_commit_list, i32, i32, i64, ptr, i32, i64, ptr, i32, i32, ptr, ptr, ptr, i32, ptr, i8, ptr, ptr, i64, ptr, i32, i32, i32, i32, i32 }
%struct.oid_array = type { ptr, i64, i64, i32 }
%struct.utimbuf = type { i64, i64 }
%struct.timeval = type { i64, i64 }

; Function Attrs: inlinehint nounwind uwtable
define internal i64 @git_time(ptr noundef %0) #5 {
  %2 = alloca ptr, align 8
  %3 = alloca %struct.timeval, align 8
  store ptr %0, ptr %2, align 8, !tbaa !304
  call void @llvm.lifetime.start.p0(i64 16, ptr %3) #12
  %4 = call i32 @gettimeofday(ptr noundef %3, ptr noundef null) #12
  %5 = load ptr, ptr %2, align 8, !tbaa !304
  %6 = icmp ne ptr %5, null
  br i1 %6, label %7, label %11

7:                                                ; preds = %1
  %8 = getelementptr inbounds nuw %struct.timeval, ptr %3, i32 0, i32 0
  %9 = load i64, ptr %8, align 8, !tbaa !379
  %10 = load ptr, ptr %2, align 8, !tbaa !304
  store i64 %9, ptr %10, align 8, !tbaa !73
  br label %11

11:                                               ; preds = %7, %1
  %12 = getelementptr inbounds nuw %struct.timeval, ptr %3, i32 0, i32 0
  %13 = load i64, ptr %12, align 8, !tbaa !379
  call void @llvm.lifetime.end.p0(i64 16, ptr %3) #12
  ret i64 %13
}

; Function Attrs: nounwind uwtable
define internal void @mark_commit_graphs(ptr noundef %0) #0 {
  %2 = alloca ptr, align 8
  %3 = alloca i32, align 4
  %4 = alloca i64, align 8
  %5 = alloca %struct.stat, align 8
  %6 = alloca %struct.utimbuf, align 8
  %7 = alloca i32, align 4
  store ptr %0, ptr %2, align 8, !tbaa !197
  call void @llvm.lifetime.start.p0(i64 4, ptr %3) #12
  call void @llvm.lifetime.start.p0(i64 8, ptr %4) #12
  %8 = call i64 @git_time(ptr noundef null)
  store i64 %8, ptr %4, align 8, !tbaa !73
  %9 = load ptr, ptr %2, align 8, !tbaa !197
  %10 = getelementptr inbounds nuw %struct.write_commit_graph_context, ptr %9, i32 0, i32 13
  %11 = load i32, ptr %10, align 4, !tbaa !219
  %12 = sub nsw i32 %11, 1
  store i32 %12, ptr %3, align 4, !tbaa !4
  br label %13

13:                                               ; preds = %48, %1
  %14 = load i32, ptr %3, align 4, !tbaa !4
  %15 = load ptr, ptr %2, align 8, !tbaa !197
  %16 = getelementptr inbounds nuw %struct.write_commit_graph_context, ptr %15, i32 0, i32 12
  %17 = load i32, ptr %16, align 8, !tbaa !210
  %18 = icmp ult i32 %14, %17
  br i1 %18, label %19, label %51

19:                                               ; preds = %13
  call void @llvm.lifetime.start.p0(i64 144, ptr %5) #12
  call void @llvm.lifetime.start.p0(i64 16, ptr %6) #12
  %20 = load ptr, ptr %2, align 8, !tbaa !197
  %21 = getelementptr inbounds nuw %struct.write_commit_graph_context, ptr %20, i32 0, i32 14
  %22 = load ptr, ptr %21, align 8, !tbaa !212
  %23 = load i32, ptr %3, align 4, !tbaa !4
  %24 = zext i32 %23 to i64
  %25 = getelementptr inbounds nuw ptr, ptr %22, i64 %24
  %26 = load ptr, ptr %25, align 8, !tbaa !65
  %27 = call i32 @stat64(ptr noundef %26, ptr noundef %5) #12
  %28 = icmp slt i32 %27, 0
  br i1 %28, label %29, label %30

29:                                               ; preds = %19
  store i32 4, ptr %7, align 4
  br label %45

30:                                               ; preds = %19
  %31 = getelementptr inbounds nuw %struct.stat, ptr %5, i32 0, i32 11
  %32 = getelementptr inbounds nuw %struct.timespec, ptr %31, i32 0, i32 0
  %33 = load i64, ptr %32, align 8, !tbaa !285
  %34 = getelementptr inbounds nuw %struct.utimbuf, ptr %6, i32 0, i32 0
  store i64 %33, ptr %34, align 8, !tbaa !286
  %35 = load i64, ptr %4, align 8, !tbaa !73
  %36 = getelementptr inbounds nuw %struct.utimbuf, ptr %6, i32 0, i32 1
  store i64 %35, ptr %36, align 8, !tbaa !288
  %37 = load ptr, ptr %2, align 8, !tbaa !197
  %38 = getelementptr inbounds nuw %struct.write_commit_graph_context, ptr %37, i32 0, i32 14
  %39 = load ptr, ptr %38, align 8, !tbaa !212
  %40 = load i32, ptr %3, align 4, !tbaa !4
  %41 = zext i32 %40 to i64
  %42 = getelementptr inbounds nuw ptr, ptr %39, i64 %41
  %43 = load ptr, ptr %42, align 8, !tbaa !65
  %44 = call i32 @utime(ptr noundef %43, ptr noundef %6) #12
  store i32 0, ptr %7, align 4
  br label %45

45:                                               ; preds = %30, %29
  call void @llvm.lifetime.end.p0(i64 16, ptr %6) #12
  call void @llvm.lifetime.end.p0(i64 144, ptr %5) #12
  %46 = load i32, ptr %7, align 4
  switch i32 %46, label %52 [
    i32 0, label %47
    i32 4, label %48
  ]

47:                                               ; preds = %45
  br label %48

48:                                               ; preds = %47, %45
  %49 = load i32, ptr %3, align 4, !tbaa !4
  %50 = add i32 %49, 1
  store i32 %50, ptr %3, align 4, !tbaa !4
  br label %13, !llvm.loop !289

51:                                               ; preds = %13
  call void @llvm.lifetime.end.p0(i64 8, ptr %4) #12
  call void @llvm.lifetime.end.p0(i64 4, ptr %3) #12
  ret void

52:                                               ; preds = %45
  unreachable
}