; Function Attrs: nofree nounwind uwtable
define internal fastcc void @mark_commit_graphs(ptr noundef readonly captures(none) %0) unnamed_addr #13 {
  %2 = alloca %struct.timeval, align 8
  %3 = alloca %struct.stat, align 8
  %4 = alloca %struct.utimbuf, align 8
  call void @llvm.lifetime.start.p0(i64 16, ptr nonnull %2) #24
  %5 = call i32 @gettimeofday(ptr noundef nonnull %2, ptr noundef null) #24
  %6 = load i64, ptr %2, align 8, !tbaa !240
  call void @llvm.lifetime.end.p0(i64 16, ptr nonnull %2) #24
  %7 = getelementptr inbounds nuw i8, ptr %0, i64 132
  %8 = load i32, ptr %7, align 4, !tbaa !229
  %9 = add nsw i32 %8, -1
  %10 = getelementptr inbounds nuw i8, ptr %0, i64 128
  %11 = load i32, ptr %10, align 8, !tbaa !190
  %12 = icmp ult i32 %9, %11
  br i1 %12, label %.lr.ph, label %._crit_edge

.lr.ph:                                           ; preds = %1
  %13 = getelementptr inbounds nuw i8, ptr %0, i64 136
  %14 = getelementptr inbounds nuw i8, ptr %3, i64 72
  %15 = getelementptr inbounds nuw i8, ptr %4, i64 8
  %16 = zext i32 %9 to i64
  br label %17

17:                                               ; preds = %.lr.ph, %29
  %indvars.iv = phi i64 [ %16, %.lr.ph ], [ %indvars.iv.next, %29 ]
  call void @llvm.lifetime.start.p0(i64 144, ptr nonnull %3) #24
  call void @llvm.lifetime.start.p0(i64 16, ptr nonnull %4) #24
  %18 = load ptr, ptr %13, align 8, !tbaa !192
  %19 = getelementptr inbounds nuw ptr, ptr %18, i64 %indvars.iv
  %20 = load ptr, ptr %19, align 8, !tbaa !193
  %21 = call i32 @stat64(ptr noundef %20, ptr noundef nonnull %3) #24
  %22 = icmp slt i32 %21, 0
  br i1 %22, label %29, label %23

23:                                               ; preds = %17
  %24 = load i64, ptr %14, align 8, !tbaa !280
  store i64 %24, ptr %4, align 8, !tbaa !281
  store i64 %6, ptr %15, align 8, !tbaa !283
  %25 = load ptr, ptr %13, align 8, !tbaa !192
  %26 = getelementptr inbounds nuw ptr, ptr %25, i64 %indvars.iv
  %27 = load ptr, ptr %26, align 8, !tbaa !193
  %28 = call i32 @utime(ptr noundef %27, ptr noundef nonnull %4) #24
  br label %29

29:                                               ; preds = %17, %23
  call void @llvm.lifetime.end.p0(i64 16, ptr nonnull %4) #24
  call void @llvm.lifetime.end.p0(i64 144, ptr nonnull %3) #24
  %indvars.iv.next = add nuw nsw i64 %indvars.iv, 1
  %30 = load i32, ptr %10, align 8, !tbaa !190
  %31 = zext i32 %30 to i64
  %32 = icmp samesign ult i64 %indvars.iv.next, %31
  br i1 %32, label %17, label %._crit_edge, !llvm.loop !284

._crit_edge:                                      ; preds = %29, %1
  ret void
}